ARM GAS  C:\Users\billa\AppData\Local\Temp\ccV9vPtT.s 			page 1


   1              		.cpu cortex-m0plus
   2              		.arch armv6s-m
   3              		.fpu softvfp
   4              		.eabi_attribute 20, 1
   5              		.eabi_attribute 21, 1
   6              		.eabi_attribute 23, 3
   7              		.eabi_attribute 24, 1
   8              		.eabi_attribute 25, 1
   9              		.eabi_attribute 26, 1
  10              		.eabi_attribute 30, 1
  11              		.eabi_attribute 34, 0
  12              		.eabi_attribute 18, 4
  13              		.file	"gpio.c"
  14              		.text
  15              	.Ltext0:
  16              		.cfi_sections	.debug_frame
  17              		.file 1 "Core/Src/gpio.c"
  18              		.section	.text.MX_GPIO_Init,"ax",%progbits
  19              		.align	1
  20              		.global	MX_GPIO_Init
  21              		.syntax unified
  22              		.code	16
  23              		.thumb_func
  25              	MX_GPIO_Init:
  26              	.LFB40:
   1:Core/Src/gpio.c **** /* USER CODE BEGIN Header */
   2:Core/Src/gpio.c **** /**
   3:Core/Src/gpio.c ****   ******************************************************************************
   4:Core/Src/gpio.c ****   * @file    gpio.c
   5:Core/Src/gpio.c ****   * @brief   This file provides code for the configuration
   6:Core/Src/gpio.c ****   *          of all used GPIO pins.
   7:Core/Src/gpio.c ****   ******************************************************************************
   8:Core/Src/gpio.c ****   * @attention
   9:Core/Src/gpio.c ****   *
  10:Core/Src/gpio.c ****   * Copyright (c) 2023 STMicroelectronics.
  11:Core/Src/gpio.c ****   * All rights reserved.
  12:Core/Src/gpio.c ****   *
  13:Core/Src/gpio.c ****   * This software is licensed under terms that can be found in the LICENSE file
  14:Core/Src/gpio.c ****   * in the root directory of this software component.
  15:Core/Src/gpio.c ****   * If no LICENSE file comes with this software, it is provided AS-IS.
  16:Core/Src/gpio.c ****   *
  17:Core/Src/gpio.c ****   ******************************************************************************
  18:Core/Src/gpio.c ****   */
  19:Core/Src/gpio.c **** /* USER CODE END Header */
  20:Core/Src/gpio.c **** 
  21:Core/Src/gpio.c **** /* Includes ------------------------------------------------------------------*/
  22:Core/Src/gpio.c **** #include "gpio.h"
  23:Core/Src/gpio.c **** 
  24:Core/Src/gpio.c **** /* USER CODE BEGIN 0 */
  25:Core/Src/gpio.c **** 
  26:Core/Src/gpio.c **** /* USER CODE END 0 */
  27:Core/Src/gpio.c **** 
  28:Core/Src/gpio.c **** /*----------------------------------------------------------------------------*/
  29:Core/Src/gpio.c **** /* Configure GPIO                                                             */
  30:Core/Src/gpio.c **** /*----------------------------------------------------------------------------*/
  31:Core/Src/gpio.c **** /* USER CODE BEGIN 1 */
  32:Core/Src/gpio.c **** 
ARM GAS  C:\Users\billa\AppData\Local\Temp\ccV9vPtT.s 			page 2


  33:Core/Src/gpio.c **** /* USER CODE END 1 */
  34:Core/Src/gpio.c **** 
  35:Core/Src/gpio.c **** /** Configure pins as
  36:Core/Src/gpio.c ****         * Analog
  37:Core/Src/gpio.c ****         * Input
  38:Core/Src/gpio.c ****         * Output
  39:Core/Src/gpio.c ****         * EVENT_OUT
  40:Core/Src/gpio.c ****         * EXTI
  41:Core/Src/gpio.c **** */
  42:Core/Src/gpio.c **** void MX_GPIO_Init(void)
  43:Core/Src/gpio.c **** {
  27              		.loc 1 43 1 view -0
  28              		.cfi_startproc
  29              		@ args = 0, pretend = 0, frame = 24
  30              		@ frame_needed = 0, uses_anonymous_args = 0
  31 0000 30B5     		push	{r4, r5, lr}
  32              		.cfi_def_cfa_offset 12
  33              		.cfi_offset 4, -12
  34              		.cfi_offset 5, -8
  35              		.cfi_offset 14, -4
  36 0002 87B0     		sub	sp, sp, #28
  37              		.cfi_def_cfa_offset 40
  44:Core/Src/gpio.c **** 
  45:Core/Src/gpio.c ****   GPIO_InitTypeDef GPIO_InitStruct = {0};
  38              		.loc 1 45 3 view .LVU1
  39              		.loc 1 45 20 is_stmt 0 view .LVU2
  40 0004 1422     		movs	r2, #20
  41 0006 0021     		movs	r1, #0
  42 0008 01A8     		add	r0, sp, #4
  43 000a FFF7FEFF 		bl	memset
  44              	.LVL0:
  46:Core/Src/gpio.c **** 
  47:Core/Src/gpio.c ****   /* GPIO Ports Clock Enable */
  48:Core/Src/gpio.c ****   __HAL_RCC_GPIOA_CLK_ENABLE();
  45              		.loc 1 48 3 is_stmt 1 view .LVU3
  46              	.LBB2:
  47              		.loc 1 48 3 view .LVU4
  48              		.loc 1 48 3 view .LVU5
  49 000e 0E4B     		ldr	r3, .L2
  50 0010 DA6A     		ldr	r2, [r3, #44]
  51 0012 0124     		movs	r4, #1
  52 0014 2243     		orrs	r2, r4
  53 0016 DA62     		str	r2, [r3, #44]
  54              		.loc 1 48 3 view .LVU6
  55 0018 DB6A     		ldr	r3, [r3, #44]
  56 001a 2340     		ands	r3, r4
  57 001c 0093     		str	r3, [sp]
  58              		.loc 1 48 3 view .LVU7
  59 001e 009B     		ldr	r3, [sp]
  60              	.LBE2:
  61              		.loc 1 48 3 view .LVU8
  49:Core/Src/gpio.c **** 
  50:Core/Src/gpio.c ****   /*Configure GPIO pin Output Level */
  51:Core/Src/gpio.c ****   HAL_GPIO_WritePin(GPIOA, DAC_nLDAC_Pin|DAC_nCS_Pin, GPIO_PIN_RESET);
  62              		.loc 1 51 3 view .LVU9
  63 0020 A025     		movs	r5, #160
  64 0022 ED05     		lsls	r5, r5, #23
ARM GAS  C:\Users\billa\AppData\Local\Temp\ccV9vPtT.s 			page 3


  65 0024 0022     		movs	r2, #0
  66 0026 1821     		movs	r1, #24
  67 0028 2800     		movs	r0, r5
  68 002a FFF7FEFF 		bl	HAL_GPIO_WritePin
  69              	.LVL1:
  52:Core/Src/gpio.c **** 
  53:Core/Src/gpio.c ****   /*Configure GPIO pins : PAPin PAPin */
  54:Core/Src/gpio.c ****   GPIO_InitStruct.Pin = DAC_nLDAC_Pin|DAC_nCS_Pin;
  70              		.loc 1 54 3 view .LVU10
  71              		.loc 1 54 23 is_stmt 0 view .LVU11
  72 002e 1823     		movs	r3, #24
  73 0030 0193     		str	r3, [sp, #4]
  55:Core/Src/gpio.c ****   GPIO_InitStruct.Mode = GPIO_MODE_OUTPUT_PP;
  74              		.loc 1 55 3 is_stmt 1 view .LVU12
  75              		.loc 1 55 24 is_stmt 0 view .LVU13
  76 0032 0294     		str	r4, [sp, #8]
  56:Core/Src/gpio.c ****   GPIO_InitStruct.Pull = GPIO_NOPULL;
  77              		.loc 1 56 3 is_stmt 1 view .LVU14
  78              		.loc 1 56 24 is_stmt 0 view .LVU15
  79 0034 0023     		movs	r3, #0
  80 0036 0393     		str	r3, [sp, #12]
  57:Core/Src/gpio.c ****   GPIO_InitStruct.Speed = GPIO_SPEED_FREQ_LOW;
  81              		.loc 1 57 3 is_stmt 1 view .LVU16
  82              		.loc 1 57 25 is_stmt 0 view .LVU17
  83 0038 0493     		str	r3, [sp, #16]
  58:Core/Src/gpio.c ****   HAL_GPIO_Init(GPIOA, &GPIO_InitStruct);
  84              		.loc 1 58 3 is_stmt 1 view .LVU18
  85 003a 01A9     		add	r1, sp, #4
  86 003c 2800     		movs	r0, r5
  87 003e FFF7FEFF 		bl	HAL_GPIO_Init
  88              	.LVL2:
  59:Core/Src/gpio.c **** 
  60:Core/Src/gpio.c **** }
  89              		.loc 1 60 1 is_stmt 0 view .LVU19
  90 0042 07B0     		add	sp, sp, #28
  91              		@ sp needed
  92 0044 30BD     		pop	{r4, r5, pc}
  93              	.L3:
  94 0046 C046     		.align	2
  95              	.L2:
  96 0048 00100240 		.word	1073876992
  97              		.cfi_endproc
  98              	.LFE40:
 100              		.text
 101              	.Letext0:
 102              		.file 2 "c:\\users\\billa\\appdata\\roaming\\code\\user\\globalstorage\\bmd.stm32-for-vscode\\@xpa
 103              		.file 3 "c:\\users\\billa\\appdata\\roaming\\code\\user\\globalstorage\\bmd.stm32-for-vscode\\@xpa
 104              		.file 4 "Drivers/CMSIS/Device/ST/STM32L0xx/Include/stm32l021xx.h"
 105              		.file 5 "Drivers/STM32L0xx_HAL_Driver/Inc/stm32l0xx_hal_gpio.h"
 106              		.file 6 "<built-in>"
ARM GAS  C:\Users\billa\AppData\Local\Temp\ccV9vPtT.s 			page 4

